target datalayout = "e-m:e-p270:32:32-p271:32:32-p272:64:64-i64:64-i128:128-f80:128-n8:16:32:64-S128"
target triple = "x86_64-pc-linux-gnu"

@.str = private unnamed_addr constant [7 x i8] c"stdout\00", align 1
@stdout = external global ptr, align 8
@.str.1 = private unnamed_addr constant [7 x i8] c"stderr\00", align 1
@stderr = external global ptr, align 8

; Function Attrs: nounwind uwtable
define i32 @SUNDIALSFileOpen(ptr noundef %0, ptr noundef %1, ptr noundef %2) #0 {
  %4 = alloca ptr, align 8
  %5 = alloca ptr, align 8
  %6 = alloca ptr, align 8
  %7 = alloca i32, align 4
  %8 = alloca ptr, align 8
  store ptr %0, ptr %4, align 8, !tbaa !3
  store ptr %1, ptr %5, align 8, !tbaa !3
  store ptr %2, ptr %6, align 8, !tbaa !8
  call void @llvm.lifetime.start.p0(i64 4, ptr %7) #4
  store i32 0, ptr %7, align 4, !tbaa !10
  call void @llvm.lifetime.start.p0(i64 8, ptr %8) #4
  %9 = load ptr, ptr %6, align 8, !tbaa !8
  %10 = load ptr, ptr %9, align 8, !tbaa !12
  store ptr %10, ptr %8, align 8, !tbaa !12
  %11 = load ptr, ptr %4, align 8, !tbaa !3
  %12 = icmp ne ptr %11, null
  br i1 %12, label %13, label %31

13:                                               ; preds = %3
  %14 = load ptr, ptr %4, align 8, !tbaa !3
  %15 = call i32 @strcmp(ptr noundef %14, ptr noundef @.str) #5
  %16 = icmp ne i32 %15, 0
  br i1 %16, label %19, label %17

17:                                               ; preds = %13
  %18 = load ptr, ptr @stdout, align 8, !tbaa !12
  store ptr %18, ptr %8, align 8, !tbaa !12
  br label %30

19:                                               ; preds = %13
  %20 = load ptr, ptr %4, align 8, !tbaa !3
  %21 = call i32 @strcmp(ptr noundef %20, ptr noundef @.str.1) #5
  %22 = icmp ne i32 %21, 0
  br i1 %22, label %25, label %23

23:                                               ; preds = %19
  %24 = load ptr, ptr @stderr, align 8, !tbaa !12
  store ptr %24, ptr %8, align 8, !tbaa !12
  br label %29

25:                                               ; preds = %19
  %26 = load ptr, ptr %4, align 8, !tbaa !3
  %27 = load ptr, ptr %5, align 8, !tbaa !3
  %28 = call noalias ptr @fopen(ptr noundef %26, ptr noundef %27)
  store ptr %28, ptr %8, align 8, !tbaa !12
  br label %29

29:                                               ; preds = %25, %23
  br label %30

30:                                               ; preds = %29, %17
  br label %31

31:                                               ; preds = %30, %3
  %32 = load ptr, ptr %8, align 8, !tbaa !12
  %33 = icmp ne ptr %32, null
  br i1 %33, label %35, label %34

34:                                               ; preds = %31
  store i32 -9991, ptr %7, align 4, !tbaa !10
  br label %35

35:                                               ; preds = %34, %31
  %36 = load ptr, ptr %8, align 8, !tbaa !12
  %37 = load ptr, ptr %6, align 8, !tbaa !8
  store ptr %36, ptr %37, align 8, !tbaa !12
  %38 = load i32, ptr %7, align 4, !tbaa !10
  call void @llvm.lifetime.end.p0(i64 8, ptr %8) #4
  call void @llvm.lifetime.end.p0(i64 4, ptr %7) #4
  ret i32 %38
}

; Function Attrs: nocallback nofree nosync nounwind willreturn memory(argmem: readwrite)
declare void @llvm.lifetime.start.p0(i64 immarg, ptr captures(none)) #1

; Function Attrs: nounwind willreturn memory(read)
declare i32 @strcmp(ptr noundef, ptr noundef) #2

declare noalias ptr @fopen(ptr noundef, ptr noundef) #3

; Function Attrs: nocallback nofree nosync nounwind willreturn memory(argmem: readwrite)
declare void @llvm.lifetime.end.p0(i64 immarg, ptr captures(none)) #1

; Function Attrs: nounwind uwtable
define i32 @SUNDIALSFileClose(ptr noundef %0) #0 {
  %2 = alloca i32, align 4
  %3 = alloca ptr, align 8
  %4 = alloca ptr, align 8
  store ptr %0, ptr %3, align 8, !tbaa !8
  %5 = load ptr, ptr %3, align 8, !tbaa !8
  %6 = icmp ne ptr %5, null
  br i1 %6, label %8, label %7

7:                                                ; preds = %1
  store i32 0, ptr %2, align 4
  br label %25

8:                                                ; preds = %1
  call void @llvm.lifetime.start.p0(i64 8, ptr %4) #4
  %9 = load ptr, ptr %3, align 8, !tbaa !8
  %10 = load ptr, ptr %9, align 8, !tbaa !12
  store ptr %10, ptr %4, align 8, !tbaa !12
  %11 = load ptr, ptr %4, align 8, !tbaa !12
  %12 = icmp ne ptr %11, null
  br i1 %12, label %13, label %24

13:                                               ; preds = %8
  %14 = load ptr, ptr %4, align 8, !tbaa !12
  %15 = load ptr, ptr @stdout, align 8, !tbaa !12
  %16 = icmp ne ptr %14, %15
  br i1 %16, label %17, label %24

17:                                               ; preds = %13
  %18 = load ptr, ptr %4, align 8, !tbaa !12
  %19 = load ptr, ptr @stderr, align 8, !tbaa !12
  %20 = icmp ne ptr %18, %19
  br i1 %20, label %21, label %24

21:                                               ; preds = %17
  %22 = load ptr, ptr %4, align 8, !tbaa !12
  %23 = call i32 @fclose(ptr noundef %22)
  br label %24

24:                                               ; preds = %21, %17, %13, %8
  store i32 0, ptr %2, align 4
  call void @llvm.lifetime.end.p0(i64 8, ptr %4) #4
  br label %25

25:                                               ; preds = %24, %7
  %26 = load i32, ptr %2, align 4
  ret i32 %26
}

declare i32 @fclose(ptr noundef) #3


!llvm.module.flags = !{!0, !1, !2}

!0 = !{i32 1, !"wchar_size", i32 4}
!1 = !{i32 8, !"PIC Level", i32 2}
!2 = !{i32 7, !"uwtable", i32 2}
!3 = !{!4, !4, i64 0}
!4 = !{!"p1 omnipotent char", !5, i64 0}
!5 = !{!"any pointer", !6, i64 0}
!6 = !{!"omnipotent char", !7, i64 0}
!7 = !{!"Simple C/C++ TBAA"}
!8 = !{!9, !9, i64 0}
!9 = !{!"p2 _ZTS8_IO_FILE", !5, i64 0}
!10 = !{!11, !11, i64 0}
!11 = !{!"int", !6, i64 0}
!12 = !{!13, !13, i64 0}
!13 = !{!"p1 _ZTS8_IO_FILE", !5, i64 0}
